; Function Attrs: nounwind uwtable
define dso_local void @uv_walk(ptr noundef %0, ptr noundef readonly captures(none) %1, ptr noundef %2) local_unnamed_addr #0 {
  %4 = alloca %struct.uv__queue, align 8
  call void @llvm.lifetime.start.p0(i64 16, ptr nonnull %4) #26
  %5 = getelementptr inbounds nuw i8, ptr %0, i64 16
  %6 = load ptr, ptr %5, align 8
  %.not.i = icmp eq ptr %5, %6
  br i1 %.not.i, label %._crit_edge, label %uv__queue_move.exit

uv__queue_move.exit:                              ; preds = %3
  %7 = getelementptr inbounds nuw i8, ptr %0, i64 24
  %8 = load ptr, ptr %7, align 8
  %9 = getelementptr inbounds nuw i8, ptr %4, i64 8
  store ptr %8, ptr %9, align 8
  store ptr %4, ptr %8, align 8
  store ptr %6, ptr %4, align 8
  %10 = getelementptr inbounds nuw i8, ptr %6, i64 8
  %11 = load ptr, ptr %10, align 8
  store ptr %11, ptr %7, align 8
  store ptr %5, ptr %11, align 8
  store ptr %4, ptr %10, align 8
  %.pre = load ptr, ptr %4, align 8
  %.not10 = icmp eq ptr %4, %.pre
  br i1 %.not10, label %._crit_edge, label %.lr.ph

.lr.ph:                                           ; preds = %uv__queue_move.exit
  %12 = getelementptr inbounds nuw i8, ptr %0, i64 24
  br label %13

13:                                               ; preds = %.lr.ph, %.backedge
  %14 = phi ptr [ %.pre, %.lr.ph ], [ %26, %.backedge ]
  %15 = load ptr, ptr %14, align 8
  %16 = getelementptr inbounds nuw i8, ptr %14, i64 8
  %17 = load ptr, ptr %16, align 8
  store ptr %15, ptr %17, align 8
  %18 = load ptr, ptr %16, align 8
  %19 = getelementptr inbounds nuw i8, ptr %15, i64 8
  store ptr %18, ptr %19, align 8
  store ptr %5, ptr %14, align 8
  %20 = load ptr, ptr %12, align 8
  store ptr %20, ptr %16, align 8
  store ptr %14, ptr %20, align 8
  store ptr %14, ptr %12, align 8
  %21 = getelementptr inbounds nuw i8, ptr %14, i64 56
  %22 = load i32, ptr %21, align 8
  %23 = and i32 %22, 16
  %.not9 = icmp eq i32 %23, 0
  br i1 %.not9, label %24, label %.backedge

24:                                               ; preds = %13
  %25 = getelementptr inbounds i8, ptr %14, i64 -32
  call void %1(ptr noundef nonnull %25, ptr noundef %2) #26
  br label %.backedge

.backedge:                                        ; preds = %24, %13
  %26 = load ptr, ptr %4, align 8
  %.not = icmp eq ptr %4, %26
  br i1 %.not, label %._crit_edge, label %13

._crit_edge:                                      ; preds = %.backedge, %3, %uv__queue_move.exit
  call void @llvm.lifetime.end.p0(i64 16, ptr nonnull %4) #26
  ret void
}